target datalayout = "e-m:e-p270:32:32-p271:32:32-p272:64:64-i64:64-i128:128-f80:128-n8:16:32:64-S128"
target triple = "x86_64-unknown-linux-gnu"

%"class.node::tracing::TracedValue" = type <{ %"class.v8::ConvertableToTraceFormat", %"class.std::__cxx11::basic_string", i8, i8, [6 x i8] }>
%"class.v8::ConvertableToTraceFormat" = type { ptr }
%"class.std::__cxx11::basic_string" = type { %"struct.std::__cxx11::basic_string<char>::_Alloc_hider", i64, %union.anon }
%"struct.std::__cxx11::basic_string<char>::_Alloc_hider" = type { ptr }
%union.anon = type { i64, [8 x i8] }

@.str = private unnamed_addr constant [5 x i8] c"true\00", align 1
@.str.1 = private unnamed_addr constant [6 x i8] c"false\00", align 1
@.str.3 = private unnamed_addr constant [3 x i8] c"\22:\00", align 1

; Function Attrs: mustprogress nounwind uwtable
define dso_local void @_ZN4node7tracing11TracedValue10WriteCommaEv(ptr noundef nonnull align 8 dereferenceable(42) %this) #0 align 2 {
entry:
  %this.addr = alloca ptr, align 8
  store ptr %this, ptr %this.addr, align 8
  %this1 = load ptr, ptr %this.addr, align 8
  %first_item_ = getelementptr inbounds %"class.node::tracing::TracedValue", ptr %this1, i32 0, i32 2
  %0 = load i8, ptr %first_item_, align 8
  %tobool = trunc i8 %0 to i1
  br i1 %tobool, label %if.then, label %if.else

if.then:                                          ; preds = %entry
  %first_item_2 = getelementptr inbounds %"class.node::tracing::TracedValue", ptr %this1, i32 0, i32 2
  store i8 0, ptr %first_item_2, align 8
  br label %if.end

if.else:                                          ; preds = %entry
  %data_ = getelementptr inbounds %"class.node::tracing::TracedValue", ptr %this1, i32 0, i32 1
  %call = call noundef nonnull align 8 dereferenceable(32) ptr @_ZNSt7__cxx1112basic_stringIcSt11char_traitsIcESaIcEEpLEc(ptr noundef nonnull align 8 dereferenceable(32) %data_, i8 noundef signext 44)
  br label %if.end

if.end:                                           ; preds = %if.else, %if.then
  ret void
}

; Function Attrs: mustprogress nounwind uwtable
define dso_local void @_ZN4node7tracing11TracedValue9WriteNameEPKc(ptr noundef nonnull align 8 dereferenceable(42) %this, ptr noundef %name) #0 align 2 {
entry:
  %this.addr = alloca ptr, align 8
  %name.addr = alloca ptr, align 8
  store ptr %this, ptr %this.addr, align 8
  store ptr %name, ptr %name.addr, align 8
  %this1 = load ptr, ptr %this.addr, align 8
  call void @_ZN4node7tracing11TracedValue10WriteCommaEv(ptr noundef nonnull align 8 dereferenceable(42) %this1)
  %data_ = getelementptr inbounds %"class.node::tracing::TracedValue", ptr %this1, i32 0, i32 1
  %call = call noundef nonnull align 8 dereferenceable(32) ptr @_ZNSt7__cxx1112basic_stringIcSt11char_traitsIcESaIcEEpLEc(ptr noundef nonnull align 8 dereferenceable(32) %data_, i8 noundef signext 34)
  %0 = load ptr, ptr %name.addr, align 8
  %data_2 = getelementptr inbounds %"class.node::tracing::TracedValue", ptr %this1, i32 0, i32 1
  %call3 = call noundef nonnull align 8 dereferenceable(32) ptr @_ZNSt7__cxx1112basic_stringIcSt11char_traitsIcESaIcEEpLEPKc(ptr noundef nonnull align 8 dereferenceable(32) %data_2, ptr noundef %0)
  %data_4 = getelementptr inbounds %"class.node::tracing::TracedValue", ptr %this1, i32 0, i32 1
  %call5 = call noundef nonnull align 8 dereferenceable(32) ptr @_ZNSt7__cxx1112basic_stringIcSt11char_traitsIcESaIcEEpLEPKc(ptr noundef nonnull align 8 dereferenceable(32) %data_4, ptr noundef @.str.3)
  ret void
}

; Function Attrs: mustprogress nounwind uwtable
define dso_local void @_ZN4node7tracing11TracedValue10SetBooleanEPKcb(ptr noundef nonnull align 8 dereferenceable(42) %this, ptr noundef %name, i1 noundef zeroext %value) #0 align 2 {
entry:
  %this.addr = alloca ptr, align 8
  %name.addr = alloca ptr, align 8
  %value.addr = alloca i8, align 1
  store ptr %this, ptr %this.addr, align 8
  store ptr %name, ptr %name.addr, align 8
  %frombool = zext i1 %value to i8
  store i8 %frombool, ptr %value.addr, align 1
  %this1 = load ptr, ptr %this.addr, align 8
  %0 = load ptr, ptr %name.addr, align 8
  call void @_ZN4node7tracing11TracedValue9WriteNameEPKc(ptr noundef nonnull align 8 dereferenceable(42) %this1, ptr noundef %0)
  %1 = load i8, ptr %value.addr, align 1
  %tobool = trunc i8 %1 to i1
  %cond = select i1 %tobool, ptr @.str, ptr @.str.1
  %data_ = getelementptr inbounds %"class.node::tracing::TracedValue", ptr %this1, i32 0, i32 1
  %call = call noundef nonnull align 8 dereferenceable(32) ptr @_ZNSt7__cxx1112basic_stringIcSt11char_traitsIcESaIcEEpLEPKc(ptr noundef nonnull align 8 dereferenceable(32) %data_, ptr noundef %cond)
  ret void
}